target datalayout = "e-m:e-p270:32:32-p271:32:32-p272:64:64-i64:64-i128:128-f80:128-n8:16:32:64-S128"
target triple = "x86_64-pc-linux-gnu"

%struct.crypto_ex_data_st = type { ptr, ptr }
%struct.ui_method_st = type { ptr, ptr, ptr, ptr, ptr, ptr, ptr, ptr, ptr, %struct.crypto_ex_data_st }

; Function Attrs: nounwind uwtable
define i32 @UI_method_set_reader(ptr noundef %0, ptr noundef %1) #0 {
  %3 = alloca i32, align 4
  %4 = alloca ptr, align 8
  %5 = alloca ptr, align 8
  store ptr %0, ptr %4, align 8, !tbaa !3
  store ptr %1, ptr %5, align 8, !tbaa !25
  %6 = load ptr, ptr %4, align 8, !tbaa !3
  %7 = icmp ne ptr %6, null
  br i1 %7, label %8, label %12

8:                                                ; preds = %2
  %9 = load ptr, ptr %5, align 8, !tbaa !25
  %10 = load ptr, ptr %4, align 8, !tbaa !3
  %11 = getelementptr inbounds nuw %struct.ui_method_st, ptr %10, i32 0, i32 4
  store ptr %9, ptr %11, align 8, !tbaa !46
  store i32 0, ptr %3, align 4
  br label %13

12:                                               ; preds = %2
  store i32 -1, ptr %3, align 4
  br label %13

13:                                               ; preds = %12, %8
  %14 = load i32, ptr %3, align 4
  ret i32 %14
}